; Function Attrs: mustprogress uwtable
define hidden noundef zeroext i1 @_ZN6google8protobuf8internal14WireFormatLite11SkipMessageEPNS0_2io16CodedInputStreamEPNS3_17CodedOutputStreamE(ptr noundef %0, ptr noundef %1) local_unnamed_addr #3 align 2 {
  %3 = getelementptr inbounds nuw i8, ptr %0, i64 8
  %4 = getelementptr inbounds nuw i8, ptr %0, i64 32
  br label %5

5:                                                ; preds = %44, %2
  %6 = load ptr, ptr %0, align 8, !tbaa !3
  %7 = load ptr, ptr %3, align 8, !tbaa !14
  %8 = icmp ult ptr %6, %7
  br i1 %8, label %9, label %15, !prof !15

9:                                                ; preds = %5
  %10 = load i8, ptr %6, align 1, !tbaa !16
  %11 = zext i8 %10 to i32
  %12 = icmp sgt i8 %10, -1
  br i1 %12, label %13, label %15

13:                                               ; preds = %9
  %14 = getelementptr inbounds nuw i8, ptr %6, i64 1
  store ptr %14, ptr %0, align 8, !tbaa !3
  br label %_ZN6google8protobuf2io16CodedInputStream16ReadTagNoLastTagEv.exit

15:                                               ; preds = %9, %5
  %.0.i = phi i32 [ %11, %9 ], [ 0, %5 ]
  %16 = tail call noundef i32 @_ZN6google8protobuf2io16CodedInputStream15ReadTagFallbackEj(ptr noundef nonnull align 8 dereferenceable(80) %0, i32 noundef %.0.i)
  br label %_ZN6google8protobuf2io16CodedInputStream16ReadTagNoLastTagEv.exit

_ZN6google8protobuf2io16CodedInputStream16ReadTagNoLastTagEv.exit: ; preds = %13, %15
  %.05.i = phi i32 [ %11, %13 ], [ %16, %15 ]
  store i32 %.05.i, ptr %4, align 8, !tbaa !18
  %17 = icmp eq i32 %.05.i, 0
  br i1 %17, label %.loopexit, label %18

18:                                               ; preds = %_ZN6google8protobuf2io16CodedInputStream16ReadTagNoLastTagEv.exit
  %19 = and i32 %.05.i, 7
  %20 = icmp eq i32 %19, 4
  br i1 %20, label %21, label %44

21:                                               ; preds = %18
  %22 = getelementptr inbounds nuw i8, ptr %1, i64 64
  %23 = load ptr, ptr %22, align 8, !tbaa !20
  %24 = load ptr, ptr %1, align 8, !tbaa !25
  %.not.i.i = icmp ult ptr %23, %24
  br i1 %.not.i.i, label %_ZN6google8protobuf2io19EpsCopyOutputStream11EnsureSpaceEPh.exit.i, label %25, !prof !15

25:                                               ; preds = %21
  %26 = tail call noundef ptr @_ZN6google8protobuf2io19EpsCopyOutputStream19EnsureSpaceFallbackEPh(ptr noundef nonnull align 8 dereferenceable(80) %1, ptr noundef %23)
  br label %_ZN6google8protobuf2io19EpsCopyOutputStream11EnsureSpaceEPh.exit.i

_ZN6google8protobuf2io19EpsCopyOutputStream11EnsureSpaceEPh.exit.i: ; preds = %25, %21
  %.0.i.i = phi ptr [ %26, %25 ], [ %23, %21 ]
  store ptr %.0.i.i, ptr %22, align 8, !tbaa !20
  %27 = trunc i32 %.05.i to i8
  store i8 %27, ptr %.0.i.i, align 1, !tbaa !16
  %28 = icmp ult i32 %.05.i, 128
  br i1 %28, label %29, label %31

29:                                               ; preds = %_ZN6google8protobuf2io19EpsCopyOutputStream11EnsureSpaceEPh.exit.i
  %30 = getelementptr inbounds nuw i8, ptr %.0.i.i, i64 1
  br label %_ZN6google8protobuf2io17CodedOutputStream13WriteVarint32Ej.exit

31:                                               ; preds = %_ZN6google8protobuf2io19EpsCopyOutputStream11EnsureSpaceEPh.exit.i
  %32 = or i8 %27, -128
  store i8 %32, ptr %.0.i.i, align 1, !tbaa !16
  %33 = lshr i32 %.05.i, 7
  %34 = trunc i32 %33 to i8
  %35 = getelementptr inbounds nuw i8, ptr %.0.i.i, i64 1
  store i8 %34, ptr %35, align 1, !tbaa !16
  %36 = icmp ult i32 %.05.i, 16384
  %37 = getelementptr inbounds nuw i8, ptr %.0.i.i, i64 2
  br i1 %36, label %_ZN6google8protobuf2io17CodedOutputStream13WriteVarint32Ej.exit, label %.preheader.i.preheader

.preheader.i.preheader:                           ; preds = %31
  %scevgep = getelementptr i8, ptr %.0.i.i, i64 1
  %load_initial = load i8, ptr %scevgep, align 1
  br label %.preheader.i

.preheader.i:                                     ; preds = %.preheader.i.preheader, %.preheader.i
  %store_forwarded = phi i8 [ %load_initial, %.preheader.i.preheader ], [ %41, %.preheader.i ]
  %.018.i.i.i = phi i32 [ %33, %.preheader.i.preheader ], [ %40, %.preheader.i ]
  %.0.i.i.i = phi ptr [ %37, %.preheader.i.preheader ], [ %42, %.preheader.i ]
  %38 = getelementptr inbounds i8, ptr %.0.i.i.i, i64 -1
  %39 = or i8 %store_forwarded, -128
  store i8 %39, ptr %38, align 1, !tbaa !16
  %40 = lshr i32 %.018.i.i.i, 7
  %41 = trunc i32 %40 to i8
  store i8 %41, ptr %.0.i.i.i, align 1, !tbaa !16
  %42 = getelementptr inbounds nuw i8, ptr %.0.i.i.i, i64 1
  %43 = icmp samesign ugt i32 %.018.i.i.i, 16383
  br i1 %43, label %.preheader.i, label %_ZN6google8protobuf2io17CodedOutputStream13WriteVarint32Ej.exit, !llvm.loop !26

_ZN6google8protobuf2io17CodedOutputStream13WriteVarint32Ej.exit: ; preds = %.preheader.i, %29, %31
  %.019.i.i.i = phi ptr [ %30, %29 ], [ %37, %31 ], [ %42, %.preheader.i ]
  store ptr %.019.i.i.i, ptr %22, align 8, !tbaa !20
  br label %.loopexit

44:                                               ; preds = %18
  %45 = tail call noundef zeroext i1 @_ZN6google8protobuf8internal14WireFormatLite9SkipFieldEPNS0_2io16CodedInputStreamEjPNS3_17CodedOutputStreamE(ptr noundef nonnull %0, i32 noundef %.05.i, ptr noundef %1)
  br i1 %45, label %5, label %.loopexit

.loopexit:                                        ; preds = %_ZN6google8protobuf2io16CodedInputStream16ReadTagNoLastTagEv.exit, %44, %_ZN6google8protobuf2io17CodedOutputStream13WriteVarint32Ej.exit
  %.1.ph = phi i1 [ true, %_ZN6google8protobuf2io17CodedOutputStream13WriteVarint32Ej.exit ], [ %17, %44 ], [ %17, %_ZN6google8protobuf2io16CodedInputStream16ReadTagNoLastTagEv.exit ]
  ret i1 %.1.ph
}